Certificate:
    Data:
        Version: 3 (0x2)
        Serial Number: 2 (0x2)
    Signature Algorithm: sha1WithRSAEncryption
        Issuer: C=CH, ST=BJ, L=BJ, O=VMWARE, OU=EUC, CN=localhost/emailAddress=menx@vmware.com
        Validity
            Not Before: Aug 11 01:50:32 2017 GMT
            Not After : Aug 11 01:50:32 2018 GMT
        Subject: C=CH, ST=BJ, O=VMWARE, OU=EUC, CN=localhost/emailAddress=menx@vmware.com
        Subject Public Key Info:
            Public Key Algorithm: rsaEncryption
                Public-Key: (1024 bit)
                Modulus:
                    00:c0:d6:56:78:c3:af:5f:15:bf:cc:87:9c:b5:8e:
                    41:b6:d8:7c:96:72:85:25:a3:cc:31:cb:ad:43:14:
                    59:4a:34:0d:12:18:b6:73:80:38:90:c0:e6:80:d0:
                    c6:40:13:9b:d0:05:e4:97:09:3d:2d:7b:0e:eb:cd:
                    64:4c:a6:22:b1:ca:6a:7d:e3:42:24:4e:85:64:d8:
                    58:d8:e4:69:28:19:97:7d:ec:15:c3:a0:fa:58:00:
                    18:8e:7b:43:1e:d5:1a:63:b7:db:cb:d5:a8:79:30:
                    a0:86:cb:18:c6:4a:b4:d7:7c:35:fd:dc:35:58:28:
                    21:ab:a5:15:ce:57:b2:f4:b7
                Exponent: 65537 (0x10001)
        X509v3 extensions:
            X509v3 Basic Constraints: 
                CA:FALSE
            Netscape Comment: 
                OpenSSL Generated Certificate
            X509v3 Subject Key Identifier: 
                6D:B8:82:8B:AF:FC:87:B3:E9:5E:C4:F8:4A:AD:15:97:12:0D:80:C0
            X509v3 Authority Key Identifier: 
                keyid:5F:37:00:D7:18:3C:CE:76:BA:EB:DF:16:AB:EC:69:C7:BA:44:EF:68

    Signature Algorithm: sha1WithRSAEncryption
         82:b4:ab:33:2c:e4:00:82:65:c8:51:7a:d8:a1:93:9c:f9:bc:
         bc:3b:71:a2:72:18:3f:c1:bb:17:b7:88:ec:dd:21:c2:93:93:
         d5:df:b1:e1:dc:af:89:48:9c:8a:58:f2:4d:b8:a7:bd:a4:f4:
         a4:e2:b2:53:33:9d:27:1c:9f:39:95:7c:a8:7a:e3:9c:da:19:
         01:38:24:c3:f7:79:66:5a:c4:a1:e3:61:64:95:97:6e:b5:54:
         74:4b:de:9e:b6:d8:5e:b2:6a:01:f0:fc:5c:64:2d:eb:4b:2d:
         92:90:28:c4:1a:c8:b6:45:7c:e6:7c:e7:1e:44:54:ab:1d:14:
         e1:7c
-----BEGIN CERTIFICATE-----
MIIC2DCCAkGgAwIBAgIBAjANBgkqhkiG9w0BAQUFADB6MQswCQYDVQQGEwJDSDEL
MAkGA1UECAwCQkoxCzAJBgNVBAcMAkJKMQ8wDQYDVQQKDAZWTVdBUkUxDDAKBgNV
BAsMA0VVQzESMBAGA1UEAwwJbG9jYWxob3N0MR4wHAYJKoZIhvcNAQkBFg9tZW54
QHZtd2FyZS5jb20wHhcNMTcwODExMDE1MDMyWhcNMTgwODExMDE1MDMyWjBtMQsw
CQYDVQQGEwJDSDELMAkGA1UECAwCQkoxDzANBgNVBAoMBlZNV0FSRTEMMAoGA1UE
CwwDRVVDMRIwEAYDVQQDDAlsb2NhbGhvc3QxHjAcBgkqhkiG9w0BCQEWD21lbnhA
dm13YXJlLmNvbTCBnzANBgkqhkiG9w0BAQEFAAOBjQAwgYkCgYEAwNZWeMOvXxW/
zIectY5Btth8lnKFJaPMMcutQxRZSjQNEhi2c4A4kMDmgNDGQBOb0AXklwk9LXsO
681kTKYiscpqfeNCJE6FZNhY2ORpKBmXfewVw6D6WAAYjntDHtUaY7fby9WoeTCg
hssYxkq013w1/dw1WCghq6UVzley9LcCAwEAAaN7MHkwCQYDVR0TBAIwADAsBglg
hkgBhvhCAQ0EHxYdT3BlblNTTCBHZW5lcmF0ZWQgQ2VydGlmaWNhdGUwHQYDVR0O
BBYEFG24gouv/Iez6V7E+EqtFZcSDYDAMB8GA1UdIwQYMBaAFF83ANcYPM52uuvf
Fqvsace6RO9oMA0GCSqGSIb3DQEBBQUAA4GBAIK0qzMs5ACCZchRetihk5z5vLw7
caJyGD/Buxe3iOzdIcKTk9XfseHcr4lInIpY8k24p72k9KTislMznSccnzmVfKh6
45zaGQE4JMP3eWZaxKHjYWSVl261VHRL3p622F6yagHw/FxkLetLLZKQKMQayLZF
fOZ85x5EVKsdFOF8
-----END CERTIFICATE-----
